; Function Attrs: mustprogress nofree norecurse nosync nounwind willreturn memory(argmem: readwrite) uwtable
define range(i32 0, 2) i32 @evhttp_set_flags(ptr noundef captures(none) %0, i32 noundef %1) local_unnamed_addr #7 {
  %.not = icmp ult i32 %1, 2
  br i1 %.not, label %3, label %8

3:                                                ; preds = %2
  %4 = getelementptr inbounds nuw i8, ptr %0, i64 176
  %5 = load i32, ptr %4, align 8
  %6 = and i32 %5, -2
  %7 = or disjoint i32 %6, %1
  store i32 %7, ptr %4, align 8
  br label %8

8:                                                ; preds = %2, %3
  %.0 = phi i32 [ 0, %3 ], [ 1, %2 ]
  ret i32 %.0
}